; Function Attrs: mustprogress nofree norecurse nosync nounwind willreturn memory(read, inaccessiblemem: none) uwtable
define dso_local noundef nonnull align 8 dereferenceable(24) ptr @_ZNK4llvm6object14WasmObjectFile17getWasmRelocationENS0_11DataRefImplE(ptr nocapture noundef nonnull readonly align 8 dereferenceable(684) %0, i64 %1) local_unnamed_addr #5 align 2 {
  %.sroa.2.0.extract.shift = lshr i64 %1, 32
  %3 = getelementptr inbounds nuw i8, ptr %0, i64 72
  %4 = and i64 %1, 4294967295
  %5 = load ptr, ptr %3, align 8
  %6 = getelementptr inbounds %"struct.llvm::object::WasmSection", ptr %5, i64 %4, i32 6
  %7 = load ptr, ptr %6, align 8
  %8 = getelementptr inbounds %"struct.llvm::wasm::WasmRelocation", ptr %7, i64 %.sroa.2.0.extract.shift
  ret ptr %8
}